target datalayout = "e-m:e-p270:32:32-p271:32:32-p272:64:64-i64:64-i128:128-f80:128-n8:16:32:64-S128"
target triple = "x86_64-pc-linux-gnu"

; Function Attrs: inlinehint nounwind uwtable
define internal i64 @_mi_random_shuffle(i64 noundef %0) #3 {
  %2 = alloca i64, align 8
  store i64 %0, ptr %2, align 8, !tbaa !8
  %3 = load i64, ptr %2, align 8, !tbaa !8
  %4 = icmp eq i64 %3, 0
  br i1 %4, label %5, label %6

5:                                                ; preds = %1
  store i64 17, ptr %2, align 8, !tbaa !8
  br label %6

6:                                                ; preds = %5, %1
  %7 = load i64, ptr %2, align 8, !tbaa !8
  %8 = lshr i64 %7, 30
  %9 = load i64, ptr %2, align 8, !tbaa !8
  %10 = xor i64 %9, %8
  store i64 %10, ptr %2, align 8, !tbaa !8
  %11 = load i64, ptr %2, align 8, !tbaa !8
  %12 = mul i64 %11, -4658895280553007687
  store i64 %12, ptr %2, align 8, !tbaa !8
  %13 = load i64, ptr %2, align 8, !tbaa !8
  %14 = lshr i64 %13, 27
  %15 = load i64, ptr %2, align 8, !tbaa !8
  %16 = xor i64 %15, %14
  store i64 %16, ptr %2, align 8, !tbaa !8
  %17 = load i64, ptr %2, align 8, !tbaa !8
  %18 = mul i64 %17, -7723592293110705685
  store i64 %18, ptr %2, align 8, !tbaa !8
  %19 = load i64, ptr %2, align 8, !tbaa !8
  %20 = lshr i64 %19, 31
  %21 = load i64, ptr %2, align 8, !tbaa !8
  %22 = xor i64 %21, %20
  store i64 %22, ptr %2, align 8, !tbaa !8
  %23 = load i64, ptr %2, align 8, !tbaa !8
  ret i64 %23
}

; Function Attrs: nounwind uwtable
define hidden i64 @_mi_os_random_weak(i64 noundef %0) #0 {
  %2 = alloca i64, align 8
  %3 = alloca i64, align 8
  %4 = alloca i64, align 8
  %5 = alloca i64, align 8
  store i64 %0, ptr %2, align 8, !tbaa !8
  call void @llvm.lifetime.start.p0(i64 8, ptr %3) #7
  %6 = load i64, ptr %2, align 8, !tbaa !8
  %7 = xor i64 ptrtoint (ptr @_mi_os_random_weak to i64), %6
  store i64 %7, ptr %3, align 8, !tbaa !8
  %8 = call i64 @_mi_prim_clock_now() #6
  %9 = load i64, ptr %3, align 8, !tbaa !8
  %10 = xor i64 %9, %8
  store i64 %10, ptr %3, align 8, !tbaa !8
  call void @llvm.lifetime.start.p0(i64 8, ptr %4) #7
  %11 = load i64, ptr %3, align 8, !tbaa !8
  %12 = load i64, ptr %3, align 8, !tbaa !8
  %13 = lshr i64 %12, 17
  %14 = xor i64 %11, %13
  %15 = and i64 %14, 15
  %16 = add i64 %15, 1
  store i64 %16, ptr %4, align 8, !tbaa !8
  call void @llvm.lifetime.start.p0(i64 8, ptr %5) #7
  store i64 0, ptr %5, align 8, !tbaa !8
  br label %17

17:                                               ; preds = %25, %1
  %18 = load i64, ptr %5, align 8, !tbaa !8
  %19 = load i64, ptr %4, align 8, !tbaa !8
  %20 = icmp ult i64 %18, %19
  br i1 %20, label %22, label %21

21:                                               ; preds = %17
  call void @llvm.lifetime.end.p0(i64 8, ptr %5) #7
  br label %28

22:                                               ; preds = %17
  %23 = load i64, ptr %3, align 8, !tbaa !8
  %24 = call i64 @_mi_random_shuffle(i64 noundef %23) #6
  store i64 %24, ptr %3, align 8, !tbaa !8
  br label %25

25:                                               ; preds = %22
  %26 = load i64, ptr %5, align 8, !tbaa !8
  %27 = add i64 %26, 1
  store i64 %27, ptr %5, align 8, !tbaa !8
  br label %17, !llvm.loop !15

28:                                               ; preds = %21
  %29 = load i64, ptr %3, align 8, !tbaa !8
  call void @llvm.lifetime.end.p0(i64 8, ptr %4) #7
  call void @llvm.lifetime.end.p0(i64 8, ptr %3) #7
  ret i64 %29
}