; Function Attrs: nounwind uwtable
define hidden i64 @_mi_os_random_weak(i64 noundef %0) #1 {
  %2 = xor i64 %0, ptrtoint (ptr @_mi_os_random_weak to i64)
  %3 = tail call i64 @_mi_prim_clock_now() #8
  %4 = xor i64 %2, %3
  %5 = lshr i64 %4, 17
  %6 = xor i64 %5, %4
  %7 = and i64 %6, 15
  br label %9

8:                                                ; preds = %9
  ret i64 %18

9:                                                ; preds = %1, %9
  %.011 = phi i64 [ 0, %1 ], [ %19, %9 ]
  %.0910 = phi i64 [ %4, %1 ], [ %18, %9 ]
  %10 = icmp eq i64 %.0910, 0
  %spec.store.select.i = select i1 %10, i64 17, i64 %.0910
  %11 = lshr i64 %spec.store.select.i, 30
  %12 = xor i64 %11, %spec.store.select.i
  %13 = mul i64 %12, -4658895280553007687
  %14 = lshr i64 %13, 27
  %15 = xor i64 %14, %13
  %16 = mul i64 %15, -7723592293110705685
  %17 = lshr i64 %16, 31
  %18 = xor i64 %17, %16
  %19 = add nuw nsw i64 %.011, 1
  %exitcond.not = icmp eq i64 %.011, %7
  br i1 %exitcond.not, label %8, label %9, !llvm.loop !10
}